target datalayout = "e-m:e-p270:32:32-p271:32:32-p272:64:64-i64:64-i128:128-f80:128-n8:16:32:64-S128"
target triple = "x86_64-pc-linux-gnu"

%union.H5Z_num_val = type { ptr }
%struct.H5Z_node = type { ptr, ptr, i32, %union.H5Z_num_val }

@H5Z_init_g = external global i8, align 1
@H5_libterm_g = external global i8, align 1

; Function Attrs: nounwind uwtable
define internal void @H5Z__xform_destroy_parse_tree(ptr noundef %0) #0 {
  %2 = alloca ptr, align 8
  store ptr %0, ptr %2, align 8, !tbaa !23
  %3 = load i8, ptr @H5Z_init_g, align 1, !tbaa !15, !range !17, !noundef !18
  %4 = trunc i8 %3 to i1
  br i1 %4, label %9, label %5

5:                                                ; preds = %1
  %6 = load i8, ptr @H5_libterm_g, align 1, !tbaa !15, !range !17, !noundef !18
  %7 = trunc i8 %6 to i1
  %8 = xor i1 %7, true
  br label %9

9:                                                ; preds = %5, %1
  %10 = phi i1 [ true, %1 ], [ %8, %5 ]
  %11 = xor i1 %10, true
  %12 = xor i1 %11, true
  %13 = zext i1 %12 to i32
  %14 = sext i32 %13 to i64
  %15 = call i64 @llvm.expect.i64(i64 %14, i64 1)
  %16 = icmp ne i64 %15, 0
  br i1 %16, label %17, label %30

17:                                               ; preds = %9
  %18 = load ptr, ptr %2, align 8, !tbaa !23
  %19 = icmp ne ptr %18, null
  br i1 %19, label %20, label %29

20:                                               ; preds = %17
  %21 = load ptr, ptr %2, align 8, !tbaa !23
  %22 = getelementptr inbounds nuw %struct.H5Z_node, ptr %21, i32 0, i32 0
  %23 = load ptr, ptr %22, align 8, !tbaa !49
  call void @H5Z__xform_destroy_parse_tree(ptr noundef %23)
  %24 = load ptr, ptr %2, align 8, !tbaa !23
  %25 = getelementptr inbounds nuw %struct.H5Z_node, ptr %24, i32 0, i32 1
  %26 = load ptr, ptr %25, align 8, !tbaa !50
  call void @H5Z__xform_destroy_parse_tree(ptr noundef %26)
  %27 = load ptr, ptr %2, align 8, !tbaa !23
  %28 = call ptr @H5MM_xfree(ptr noundef %27)
  store ptr null, ptr %2, align 8, !tbaa !23
  br label %29

29:                                               ; preds = %20, %17
  br label %30

30:                                               ; preds = %29, %9
  ret void
}