; Function Attrs: nounwind uwtable
define internal fastcc void @H5Z__xform_destroy_parse_tree(ptr noundef %0) unnamed_addr #0 {
  %2 = load i8, ptr @H5Z_init_g, align 1, !tbaa !3, !range !7, !noundef !8
  %3 = trunc nuw i8 %2 to i1
  %4 = load i8, ptr @H5_libterm_g, align 1, !range !7
  %5 = trunc nuw i8 %4 to i1
  %6 = xor i1 %5, true
  %7 = select i1 %3, i1 true, i1 %6
  %8 = icmp ne ptr %0, null
  %or.cond = and i1 %8, %7
  br i1 %or.cond, label %9, label %common.ret5, !prof !209

common.ret5:                                      ; preds = %1, %9
  ret void

9:                                                ; preds = %1
  %10 = load ptr, ptr %0, align 8, !tbaa !43
  tail call fastcc void @H5Z__xform_destroy_parse_tree(ptr noundef %10)
  %11 = getelementptr inbounds nuw i8, ptr %0, i64 8
  %12 = load ptr, ptr %11, align 8, !tbaa !44
  tail call fastcc void @H5Z__xform_destroy_parse_tree(ptr noundef %12)
  %13 = tail call ptr @H5MM_xfree(ptr noundef nonnull %0) #12
  br label %common.ret5
}